; Function Attrs: mustprogress uwtable
define internal void @"_ZNK4$_329to_stringB5cxx11E6insn_t"(ptr dead_on_unwind noalias writable sret(%"class.std::__cxx11::basic_string") align 8 %0, ptr nocapture nonnull readnone align 8 %1, i64 %2) unnamed_addr #1 align 2 personality ptr @__gxx_personality_v0 {
  %4 = alloca %"class.std::allocator", align 1
  %5 = lshr i64 %2, 7
  %6 = and i64 %5, 7
  %7 = icmp ult i64 %6, 2
  %.v = select i1 %7, i64 8, i64 16
  %8 = or disjoint i64 %.v, %6
  %9 = getelementptr inbounds [32 x ptr], ptr @xpr_name, i64 0, i64 %8
  %10 = load ptr, ptr %9, align 8
  call void @_ZNSaIcEC1Ev(ptr noundef nonnull align 1 dereferenceable(1) %4) #19
  invoke void @_ZNSt7__cxx1112basic_stringIcSt11char_traitsIcESaIcEEC2IS3_EEPKcRKS3_(ptr noundef nonnull align 8 dereferenceable(32) %0, ptr noundef %10, ptr noundef nonnull align 1 dereferenceable(1) %4)
          to label %11 unwind label %12

11:                                               ; preds = %3
  call void @_ZNSaIcED1Ev(ptr noundef nonnull align 1 dereferenceable(1) %4) #19
  ret void

12:                                               ; preds = %3
  %13 = landingpad { ptr, i32 }
          cleanup
  call void @_ZNSaIcED1Ev(ptr noundef nonnull align 1 dereferenceable(1) %4) #19
  resume { ptr, i32 } %13
}